; ModuleID = '5/253.c'
source_filename = "5/253.c"
target datalayout = "e-m:e-p270:32:32-p271:32:32-p272:64:64-i64:64-f80:128-n8:16:32:64-S128"
target triple = "x86_64-pc-linux-gnu"

@.str = private unnamed_addr constant [4 x i8] c"%lf\00", align 1
@.str.1 = private unnamed_addr constant [6 x i8] c"%s %s\00", align 1
@.str.2 = private unnamed_addr constant [7 x i8] c"error\0A\00", align 1
@.str.3 = private unnamed_addr constant [5 x i8] c"yes\0A\00", align 1
@.str.4 = private unnamed_addr constant [4 x i8] c"no\0A\00", align 1

; Function Attrs: noinline nounwind uwtable
define dso_local i32 @main() #0 {
  %1 = alloca i32, align 4
  %2 = alloca double, align 8
  %3 = alloca double, align 8
  %4 = alloca [100 x i8], align 16
  %5 = alloca [100 x i8], align 16
  %6 = alloca i32, align 4
  %7 = alloca i32, align 4
  %8 = alloca i32, align 4
  %9 = alloca i32, align 4
  %10 = alloca i32, align 4
  store i32 0, i32* %1, align 4
  %11 = call i32 (i8*, ...) @__isoc99_scanf(i8* getelementptr inbounds ([4 x i8], [4 x i8]* @.str, i64 0, i64 0), double* %2)
  %12 = call i32 (i8*, ...) @__isoc99_scanf(i8* getelementptr inbounds ([6 x i8], [6 x i8]* @.str.1, i64 0, i64 0), [100 x i8]* %4, [100 x i8]* %5)
  %13 = getelementptr inbounds [100 x i8], [100 x i8]* %4, i64 0, i64 0
  %14 = call i64 @strlen(i8* %13) #3
  %15 = trunc i64 %14 to i32
  store i32 %15, i32* %6, align 4
  %16 = getelementptr inbounds [100 x i8], [100 x i8]* %5, i64 0, i64 0
  %17 = call i64 @strlen(i8* %16) #3
  %18 = trunc i64 %17 to i32
  store i32 %18, i32* %7, align 4
  store i32 0, i32* %8, align 4
  br label %19

19:                                               ; preds = %54, %0
  %20 = load i32, i32* %8, align 4
  %21 = load i32, i32* %6, align 4
  %22 = icmp slt i32 %20, %21
  br i1 %22, label %23, label %57

23:                                               ; preds = %19
  %24 = load i32, i32* %8, align 4
  %25 = sext i32 %24 to i64
  %26 = getelementptr inbounds [100 x i8], [100 x i8]* %4, i64 0, i64 %25
  %27 = load i8, i8* %26, align 1
  %28 = sext i8 %27 to i32
  %29 = icmp ne i32 %28, 65
  br i1 %29, label %30, label %53

30:                                               ; preds = %23
  %31 = load i32, i32* %8, align 4
  %32 = sext i32 %31 to i64
  %33 = getelementptr inbounds [100 x i8], [100 x i8]* %4, i64 0, i64 %32
  %34 = load i8, i8* %33, align 1
  %35 = sext i8 %34 to i32
  %36 = icmp ne i32 %35, 84
  br i1 %36, label %37, label %53

37:                                               ; preds = %30
  %38 = load i32, i32* %8, align 4
  %39 = sext i32 %38 to i64
  %40 = getelementptr inbounds [100 x i8], [100 x i8]* %4, i64 0, i64 %39
  %41 = load i8, i8* %40, align 1
  %42 = sext i8 %41 to i32
  %43 = icmp ne i32 %42, 67
  br i1 %43, label %44, label %53

44:                                               ; preds = %37
  %45 = load i32, i32* %8, align 4
  %46 = sext i32 %45 to i64
  %47 = getelementptr inbounds [100 x i8], [100 x i8]* %4, i64 0, i64 %46
  %48 = load i8, i8* %47, align 1
  %49 = sext i8 %48 to i32
  %50 = icmp ne i32 %49, 71
  br i1 %50, label %51, label %53

51:                                               ; preds = %44
  %52 = call i32 (i8*, ...) @printf(i8* getelementptr inbounds ([7 x i8], [7 x i8]* @.str.2, i64 0, i64 0))
  store i32 0, i32* %1, align 4
  br label %147

53:                                               ; preds = %44, %37, %30, %23
  br label %54

54:                                               ; preds = %53
  %55 = load i32, i32* %8, align 4
  %56 = add nsw i32 %55, 1
  store i32 %56, i32* %8, align 4
  br label %19

57:                                               ; preds = %19
  store i32 0, i32* %9, align 4
  br label %58

58:                                               ; preds = %93, %57
  %59 = load i32, i32* %9, align 4
  %60 = load i32, i32* %7, align 4
  %61 = icmp slt i32 %59, %60
  br i1 %61, label %62, label %96

62:                                               ; preds = %58
  %63 = load i32, i32* %9, align 4
  %64 = sext i32 %63 to i64
  %65 = getelementptr inbounds [100 x i8], [100 x i8]* %5, i64 0, i64 %64
  %66 = load i8, i8* %65, align 1
  %67 = sext i8 %66 to i32
  %68 = icmp ne i32 %67, 65
  br i1 %68, label %69, label %92

69:                                               ; preds = %62
  %70 = load i32, i32* %9, align 4
  %71 = sext i32 %70 to i64
  %72 = getelementptr inbounds [100 x i8], [100 x i8]* %5, i64 0, i64 %71
  %73 = load i8, i8* %72, align 1
  %74 = sext i8 %73 to i32
  %75 = icmp ne i32 %74, 84
  br i1 %75, label %76, label %92

76:                                               ; preds = %69
  %77 = load i32, i32* %9, align 4
  %78 = sext i32 %77 to i64
  %79 = getelementptr inbounds [100 x i8], [100 x i8]* %5, i64 0, i64 %78
  %80 = load i8, i8* %79, align 1
  %81 = sext i8 %80 to i32
  %82 = icmp ne i32 %81, 67
  br i1 %82, label %83, label %92

83:                                               ; preds = %76
  %84 = load i32, i32* %9, align 4
  %85 = sext i32 %84 to i64
  %86 = getelementptr inbounds [100 x i8], [100 x i8]* %5, i64 0, i64 %85
  %87 = load i8, i8* %86, align 1
  %88 = sext i8 %87 to i32
  %89 = icmp ne i32 %88, 71
  br i1 %89, label %90, label %92

90:                                               ; preds = %83
  %91 = call i32 (i8*, ...) @printf(i8* getelementptr inbounds ([7 x i8], [7 x i8]* @.str.2, i64 0, i64 0))
  store i32 0, i32* %1, align 4
  br label %147

92:                                               ; preds = %83, %76, %69, %62
  br label %93

93:                                               ; preds = %92
  %94 = load i32, i32* %9, align 4
  %95 = add nsw i32 %94, 1
  store i32 %95, i32* %9, align 4
  br label %58

96:                                               ; preds = %58
  %97 = load i32, i32* %6, align 4
  %98 = load i32, i32* %7, align 4
  %99 = icmp ne i32 %97, %98
  br i1 %99, label %100, label %102

100:                                              ; preds = %96
  %101 = call i32 (i8*, ...) @printf(i8* getelementptr inbounds ([7 x i8], [7 x i8]* @.str.2, i64 0, i64 0))
  br label %146

102:                                              ; preds = %96
  %103 = load i32, i32* %6, align 4
  %104 = load i32, i32* %7, align 4
  %105 = icmp eq i32 %103, %104
  br i1 %105, label %106, label %145

106:                                              ; preds = %102
  store i32 0, i32* %10, align 4
  store i32 0, i32* %8, align 4
  br label %107

107:                                              ; preds = %127, %106
  %108 = load i32, i32* %8, align 4
  %109 = load i32, i32* %6, align 4
  %110 = icmp slt i32 %108, %109
  br i1 %110, label %111, label %130

111:                                              ; preds = %107
  %112 = load i32, i32* %8, align 4
  %113 = sext i32 %112 to i64
  %114 = getelementptr inbounds [100 x i8], [100 x i8]* %4, i64 0, i64 %113
  %115 = load i8, i8* %114, align 1
  %116 = sext i8 %115 to i32
  %117 = load i32, i32* %8, align 4
  %118 = sext i32 %117 to i64
  %119 = getelementptr inbounds [100 x i8], [100 x i8]* %5, i64 0, i64 %118
  %120 = load i8, i8* %119, align 1
  %121 = sext i8 %120 to i32
  %122 = icmp eq i32 %116, %121
  br i1 %122, label %123, label %126

123:                                              ; preds = %111
  %124 = load i32, i32* %10, align 4
  %125 = add nsw i32 %124, 1
  store i32 %125, i32* %10, align 4
  br label %126

126:                                              ; preds = %123, %111
  br label %127

127:                                              ; preds = %126
  %128 = load i32, i32* %8, align 4
  %129 = add nsw i32 %128, 1
  store i32 %129, i32* %8, align 4
  br label %107

130:                                              ; preds = %107
  %131 = load i32, i32* %10, align 4
  %132 = sitofp i32 %131 to double
  %133 = fmul double 1.000000e+00, %132
  %134 = load i32, i32* %6, align 4
  %135 = sitofp i32 %134 to double
  %136 = fdiv double %133, %135
  store double %136, double* %3, align 8
  %137 = load double, double* %3, align 8
  %138 = load double, double* %2, align 8
  %139 = fcmp ogt double %137, %138
  br i1 %139, label %140, label %142

140:                                              ; preds = %130
  %141 = call i32 (i8*, ...) @printf(i8* getelementptr inbounds ([5 x i8], [5 x i8]* @.str.3, i64 0, i64 0))
  br label %144

142:                                              ; preds = %130
  %143 = call i32 (i8*, ...) @printf(i8* getelementptr inbounds ([4 x i8], [4 x i8]* @.str.4, i64 0, i64 0))
  br label %144

144:                                              ; preds = %142, %140
  br label %145

145:                                              ; preds = %144, %102
  br label %146

146:                                              ; preds = %145, %100
  store i32 0, i32* %1, align 4
  br label %147

147:                                              ; preds = %146, %90, %51
  %148 = load i32, i32* %1, align 4
  ret i32 %148
}

declare dso_local i32 @__isoc99_scanf(i8*, ...) #1

; Function Attrs: nounwind readonly
declare dso_local i64 @strlen(i8*) #2

declare dso_local i32 @printf(i8*, ...) #1


!llvm.module.flags = !{!0}
!llvm.ident = !{!1}

!0 = !{i32 1, !"wchar_size", i32 4}
!1 = !{!"clang version 10.0.0-4ubuntu1 "}
